target datalayout = "e-m:e-p270:32:32-p271:32:32-p272:64:64-i64:64-i128:128-f80:128-n8:16:32:64-S128"
target triple = "x86_64-pc-linux-gnu"

%struct._exr_decode_pipeline = type { i64, ptr, i16, i16, i32, ptr, %struct.exr_chunk_info_t, i32, i32, i64, ptr, ptr, i64, ptr, i64, ptr, i64, ptr, i64, ptr, i64, ptr, i64, ptr, ptr, ptr, ptr, ptr, ptr, [5 x %struct.exr_coding_channel_info_t] }
%struct.exr_chunk_info_t = type { i32, i32, i32, i32, i32, i8, i8, i8, i8, i64, i64, i64, i64, i64 }
%struct.exr_coding_channel_info_t = type { ptr, i32, i32, i32, i32, i8, i8, i16, i16, i16, i32, i32, %union.anon }
%union.anon = type { ptr }

; Function Attrs: nounwind uwtable
define internal i32 @unpack_half_to_float_3chan_planar(ptr noundef %0) #0 {
  %2 = alloca ptr, align 8
  %3 = alloca ptr, align 8
  %4 = alloca ptr, align 8
  %5 = alloca ptr, align 8
  %6 = alloca ptr, align 8
  %7 = alloca ptr, align 8
  %8 = alloca ptr, align 8
  %9 = alloca ptr, align 8
  %10 = alloca i32, align 4
  %11 = alloca i32, align 4
  %12 = alloca i32, align 4
  %13 = alloca i32, align 4
  %14 = alloca i32, align 4
  %15 = alloca i32, align 4
  store ptr %0, ptr %2, align 8, !tbaa !3
  call void @llvm.lifetime.start.p0(i64 8, ptr %3) #6
  %16 = load ptr, ptr %2, align 8, !tbaa !3
  %17 = getelementptr inbounds nuw %struct._exr_decode_pipeline, ptr %16, i32 0, i32 13
  %18 = load ptr, ptr %17, align 8, !tbaa !19
  store ptr %18, ptr %3, align 8, !tbaa !20
  call void @llvm.lifetime.start.p0(i64 8, ptr %4) #6
  call void @llvm.lifetime.start.p0(i64 8, ptr %5) #6
  call void @llvm.lifetime.start.p0(i64 8, ptr %6) #6
  call void @llvm.lifetime.start.p0(i64 8, ptr %7) #6
  call void @llvm.lifetime.start.p0(i64 8, ptr %8) #6
  call void @llvm.lifetime.start.p0(i64 8, ptr %9) #6
  call void @llvm.lifetime.start.p0(i64 4, ptr %10) #6
  call void @llvm.lifetime.start.p0(i64 4, ptr %11) #6
  call void @llvm.lifetime.start.p0(i64 4, ptr %12) #6
  call void @llvm.lifetime.start.p0(i64 4, ptr %13) #6
  call void @llvm.lifetime.start.p0(i64 4, ptr %14) #6
  %19 = load ptr, ptr %2, align 8, !tbaa !3
  %20 = getelementptr inbounds nuw %struct._exr_decode_pipeline, ptr %19, i32 0, i32 1
  %21 = load ptr, ptr %20, align 8, !tbaa !28
  %22 = getelementptr inbounds %struct.exr_coding_channel_info_t, ptr %21, i64 0
  %23 = getelementptr inbounds nuw %struct.exr_coding_channel_info_t, ptr %22, i32 0, i32 2
  %24 = load i32, ptr %23, align 4, !tbaa !72
  store i32 %24, ptr %10, align 4, !tbaa !8
  %25 = load ptr, ptr %2, align 8, !tbaa !3
  %26 = getelementptr inbounds nuw %struct._exr_decode_pipeline, ptr %25, i32 0, i32 6
  %27 = getelementptr inbounds nuw %struct.exr_chunk_info_t, ptr %26, i32 0, i32 3
  %28 = load i32, ptr %27, align 4, !tbaa !25
  %29 = load ptr, ptr %2, align 8, !tbaa !3
  %30 = getelementptr inbounds nuw %struct._exr_decode_pipeline, ptr %29, i32 0, i32 8
  %31 = load i32, ptr %30, align 4, !tbaa !26
  %32 = sub nsw i32 %28, %31
  store i32 %32, ptr %11, align 4, !tbaa !8
  %33 = load ptr, ptr %2, align 8, !tbaa !3
  %34 = getelementptr inbounds nuw %struct._exr_decode_pipeline, ptr %33, i32 0, i32 1
  %35 = load ptr, ptr %34, align 8, !tbaa !28
  %36 = getelementptr inbounds %struct.exr_coding_channel_info_t, ptr %35, i64 0
  %37 = getelementptr inbounds nuw %struct.exr_coding_channel_info_t, ptr %36, i32 0, i32 11
  %38 = load i32, ptr %37, align 4, !tbaa !37
  store i32 %38, ptr %12, align 4, !tbaa !8
  %39 = load ptr, ptr %2, align 8, !tbaa !3
  %40 = getelementptr inbounds nuw %struct._exr_decode_pipeline, ptr %39, i32 0, i32 1
  %41 = load ptr, ptr %40, align 8, !tbaa !28
  %42 = getelementptr inbounds %struct.exr_coding_channel_info_t, ptr %41, i64 1
  %43 = getelementptr inbounds nuw %struct.exr_coding_channel_info_t, ptr %42, i32 0, i32 11
  %44 = load i32, ptr %43, align 4, !tbaa !37
  store i32 %44, ptr %13, align 4, !tbaa !8
  %45 = load ptr, ptr %2, align 8, !tbaa !3
  %46 = getelementptr inbounds nuw %struct._exr_decode_pipeline, ptr %45, i32 0, i32 1
  %47 = load ptr, ptr %46, align 8, !tbaa !28
  %48 = getelementptr inbounds %struct.exr_coding_channel_info_t, ptr %47, i64 2
  %49 = getelementptr inbounds nuw %struct.exr_coding_channel_info_t, ptr %48, i32 0, i32 11
  %50 = load i32, ptr %49, align 4, !tbaa !37
  store i32 %50, ptr %14, align 4, !tbaa !8
  %51 = load ptr, ptr %2, align 8, !tbaa !3
  %52 = getelementptr inbounds nuw %struct._exr_decode_pipeline, ptr %51, i32 0, i32 1
  %53 = load ptr, ptr %52, align 8, !tbaa !28
  %54 = getelementptr inbounds %struct.exr_coding_channel_info_t, ptr %53, i64 0
  %55 = getelementptr inbounds nuw %struct.exr_coding_channel_info_t, ptr %54, i32 0, i32 12
  %56 = load ptr, ptr %55, align 8, !tbaa !10
  store ptr %56, ptr %7, align 8, !tbaa !20
  %57 = load ptr, ptr %2, align 8, !tbaa !3
  %58 = getelementptr inbounds nuw %struct._exr_decode_pipeline, ptr %57, i32 0, i32 1
  %59 = load ptr, ptr %58, align 8, !tbaa !28
  %60 = getelementptr inbounds %struct.exr_coding_channel_info_t, ptr %59, i64 1
  %61 = getelementptr inbounds nuw %struct.exr_coding_channel_info_t, ptr %60, i32 0, i32 12
  %62 = load ptr, ptr %61, align 8, !tbaa !10
  store ptr %62, ptr %8, align 8, !tbaa !20
  %63 = load ptr, ptr %2, align 8, !tbaa !3
  %64 = getelementptr inbounds nuw %struct._exr_decode_pipeline, ptr %63, i32 0, i32 1
  %65 = load ptr, ptr %64, align 8, !tbaa !28
  %66 = getelementptr inbounds %struct.exr_coding_channel_info_t, ptr %65, i64 2
  %67 = getelementptr inbounds nuw %struct.exr_coding_channel_info_t, ptr %66, i32 0, i32 12
  %68 = load ptr, ptr %67, align 8, !tbaa !10
  store ptr %68, ptr %9, align 8, !tbaa !20
  %69 = load ptr, ptr %2, align 8, !tbaa !3
  %70 = getelementptr inbounds nuw %struct._exr_decode_pipeline, ptr %69, i32 0, i32 7
  %71 = load i32, ptr %70, align 8, !tbaa !27
  %72 = load i32, ptr %10, align 4, !tbaa !8
  %73 = mul nsw i32 %71, %72
  %74 = mul nsw i32 %73, 6
  %75 = load ptr, ptr %3, align 8, !tbaa !20
  %76 = sext i32 %74 to i64
  %77 = getelementptr inbounds i8, ptr %75, i64 %76
  store ptr %77, ptr %3, align 8, !tbaa !20
  call void @llvm.lifetime.start.p0(i64 4, ptr %15) #6
  %78 = load ptr, ptr %2, align 8, !tbaa !3
  %79 = getelementptr inbounds nuw %struct._exr_decode_pipeline, ptr %78, i32 0, i32 7
  %80 = load i32, ptr %79, align 8, !tbaa !27
  store i32 %80, ptr %15, align 4, !tbaa !8
  br label %81

81:                                               ; preds = %122, %1
  %82 = load i32, ptr %15, align 4, !tbaa !8
  %83 = load i32, ptr %11, align 4, !tbaa !8
  %84 = icmp slt i32 %82, %83
  br i1 %84, label %86, label %85

85:                                               ; preds = %81
  call void @llvm.lifetime.end.p0(i64 4, ptr %15) #6
  br label %125

86:                                               ; preds = %81
  %87 = load ptr, ptr %3, align 8, !tbaa !20
  store ptr %87, ptr %4, align 8, !tbaa !42
  %88 = load ptr, ptr %4, align 8, !tbaa !42
  %89 = load i32, ptr %10, align 4, !tbaa !8
  %90 = sext i32 %89 to i64
  %91 = getelementptr inbounds i16, ptr %88, i64 %90
  store ptr %91, ptr %5, align 8, !tbaa !42
  %92 = load ptr, ptr %5, align 8, !tbaa !42
  %93 = load i32, ptr %10, align 4, !tbaa !8
  %94 = sext i32 %93 to i64
  %95 = getelementptr inbounds i16, ptr %92, i64 %94
  store ptr %95, ptr %6, align 8, !tbaa !42
  %96 = load i32, ptr %10, align 4, !tbaa !8
  %97 = mul nsw i32 %96, 6
  %98 = load ptr, ptr %3, align 8, !tbaa !20
  %99 = sext i32 %97 to i64
  %100 = getelementptr inbounds i8, ptr %98, i64 %99
  store ptr %100, ptr %3, align 8, !tbaa !20
  %101 = load ptr, ptr %7, align 8, !tbaa !20
  %102 = load ptr, ptr %4, align 8, !tbaa !42
  %103 = load i32, ptr %10, align 4, !tbaa !8
  call void @half_to_float_buffer(ptr noundef %101, ptr noundef %102, i32 noundef %103)
  %104 = load ptr, ptr %8, align 8, !tbaa !20
  %105 = load ptr, ptr %5, align 8, !tbaa !42
  %106 = load i32, ptr %10, align 4, !tbaa !8
  call void @half_to_float_buffer(ptr noundef %104, ptr noundef %105, i32 noundef %106)
  %107 = load ptr, ptr %9, align 8, !tbaa !20
  %108 = load ptr, ptr %6, align 8, !tbaa !42
  %109 = load i32, ptr %10, align 4, !tbaa !8
  call void @half_to_float_buffer(ptr noundef %107, ptr noundef %108, i32 noundef %109)
  %110 = load i32, ptr %12, align 4, !tbaa !8
  %111 = load ptr, ptr %7, align 8, !tbaa !20
  %112 = sext i32 %110 to i64
  %113 = getelementptr inbounds i8, ptr %111, i64 %112
  store ptr %113, ptr %7, align 8, !tbaa !20
  %114 = load i32, ptr %13, align 4, !tbaa !8
  %115 = load ptr, ptr %8, align 8, !tbaa !20
  %116 = sext i32 %114 to i64
  %117 = getelementptr inbounds i8, ptr %115, i64 %116
  store ptr %117, ptr %8, align 8, !tbaa !20
  %118 = load i32, ptr %14, align 4, !tbaa !8
  %119 = load ptr, ptr %9, align 8, !tbaa !20
  %120 = sext i32 %118 to i64
  %121 = getelementptr inbounds i8, ptr %119, i64 %120
  store ptr %121, ptr %9, align 8, !tbaa !20
  br label %122

122:                                              ; preds = %86
  %123 = load i32, ptr %15, align 4, !tbaa !8
  %124 = add nsw i32 %123, 1
  store i32 %124, ptr %15, align 4, !tbaa !8
  br label %81, !llvm.loop !84

125:                                              ; preds = %85
  call void @llvm.lifetime.end.p0(i64 4, ptr %14) #6
  call void @llvm.lifetime.end.p0(i64 4, ptr %13) #6
  call void @llvm.lifetime.end.p0(i64 4, ptr %12) #6
  call void @llvm.lifetime.end.p0(i64 4, ptr %11) #6
  call void @llvm.lifetime.end.p0(i64 4, ptr %10) #6
  call void @llvm.lifetime.end.p0(i64 8, ptr %9) #6
  call void @llvm.lifetime.end.p0(i64 8, ptr %8) #6
  call void @llvm.lifetime.end.p0(i64 8, ptr %7) #6
  call void @llvm.lifetime.end.p0(i64 8, ptr %6) #6
  call void @llvm.lifetime.end.p0(i64 8, ptr %5) #6
  call void @llvm.lifetime.end.p0(i64 8, ptr %4) #6
  call void @llvm.lifetime.end.p0(i64 8, ptr %3) #6
  ret i32 0
}