; Function Attrs: nofree norecurse nosync nounwind memory(readwrite, inaccessiblemem: none) uwtable
define internal noundef i32 @unpack_half_to_float_3chan_planar(ptr noundef readonly captures(none) %0) #1 {
  %2 = getelementptr inbounds nuw i8, ptr %0, i64 8
  %3 = load ptr, ptr %2, align 8, !tbaa !22
  %4 = getelementptr inbounds nuw i8, ptr %3, i64 12
  %5 = load i32, ptr %4, align 4, !tbaa !65
  %6 = getelementptr inbounds nuw i8, ptr %0, i64 44
  %7 = load i32, ptr %6, align 4, !tbaa !16
  %8 = getelementptr inbounds nuw i8, ptr %0, i64 100
  %9 = load i32, ptr %8, align 4, !tbaa !17
  %10 = sub nsw i32 %7, %9
  %11 = getelementptr inbounds nuw i8, ptr %0, i64 96
  %12 = load i32, ptr %11, align 8, !tbaa !19
  %13 = icmp slt i32 %12, %10
  br i1 %13, label %.lr.ph, label %._crit_edge

.lr.ph:                                           ; preds = %1
  %14 = getelementptr inbounds nuw i8, ptr %0, i64 136
  %15 = load ptr, ptr %14, align 8, !tbaa !21
  %16 = mul i32 %5, 6
  %17 = mul i32 %16, %12
  %18 = sext i32 %17 to i64
  %19 = getelementptr inbounds i8, ptr %15, i64 %18
  %20 = getelementptr inbounds nuw i8, ptr %3, i64 136
  %21 = load ptr, ptr %20, align 8, !tbaa !3
  %22 = getelementptr inbounds nuw i8, ptr %3, i64 88
  %23 = load ptr, ptr %22, align 8, !tbaa !3
  %24 = getelementptr inbounds nuw i8, ptr %3, i64 40
  %25 = load ptr, ptr %24, align 8, !tbaa !3
  %26 = getelementptr inbounds nuw i8, ptr %3, i64 132
  %27 = load i32, ptr %26, align 4, !tbaa !32
  %28 = getelementptr inbounds nuw i8, ptr %3, i64 84
  %29 = load i32, ptr %28, align 4, !tbaa !32
  %30 = getelementptr inbounds nuw i8, ptr %3, i64 36
  %31 = load i32, ptr %30, align 4, !tbaa !32
  %32 = sext i32 %5 to i64
  %33 = sext i32 %16 to i64
  %34 = sext i32 %31 to i64
  %35 = sext i32 %29 to i64
  %36 = sext i32 %27 to i64
  br label %37

._crit_edge:                                      ; preds = %37, %1
  ret i32 0

37:                                               ; preds = %.lr.ph, %37
  %.046 = phi i32 [ %12, %.lr.ph ], [ %44, %37 ]
  %.03845 = phi ptr [ %19, %.lr.ph ], [ %40, %37 ]
  %.03944 = phi ptr [ %25, %.lr.ph ], [ %41, %37 ]
  %.04043 = phi ptr [ %23, %.lr.ph ], [ %42, %37 ]
  %.04142 = phi ptr [ %21, %.lr.ph ], [ %43, %37 ]
  %38 = getelementptr inbounds i16, ptr %.03845, i64 %32
  %39 = getelementptr inbounds i16, ptr %38, i64 %32
  %40 = getelementptr inbounds i8, ptr %.03845, i64 %33
  tail call fastcc void @half_to_float_buffer(ptr noundef %.03944, ptr noundef %.03845, i32 noundef %5)
  tail call fastcc void @half_to_float_buffer(ptr noundef %.04043, ptr noundef %38, i32 noundef %5)
  tail call fastcc void @half_to_float_buffer(ptr noundef %.04142, ptr noundef %39, i32 noundef %5)
  %41 = getelementptr inbounds i8, ptr %.03944, i64 %34
  %42 = getelementptr inbounds i8, ptr %.04043, i64 %35
  %43 = getelementptr inbounds i8, ptr %.04142, i64 %36
  %44 = add nsw i32 %.046, 1
  %45 = icmp slt i32 %44, %10
  br i1 %45, label %37, label %._crit_edge, !llvm.loop !75
}